; Function Attrs: mustprogress uwtable
define void @_ZN3gmx19AnalysisDataStorage17finishFrameSerialEi(ptr nocapture noundef nonnull readonly align 8 dereferenceable(8) %0, i32 noundef %1) local_unnamed_addr #1 align 2 {
  %3 = load ptr, ptr %0, align 8
  %4 = getelementptr inbounds i8, ptr %3, i64 20
  %5 = load i32, ptr %4, align 4
  %6 = icmp sgt i32 %5, 1
  br i1 %6, label %7, label %8

7:                                                ; preds = %2
  tail call void @_ZN3gmx8internal23AnalysisDataStorageImpl17finishFrameSerialEi(ptr noundef nonnull align 8 dereferenceable(92) %3, i32 noundef %1)
  br label %8

8:                                                ; preds = %7, %2
  ret void
}